; Function Attrs: mustprogress nofree norecurse nosync nounwind willreturn memory(readwrite, inaccessiblemem: none) uwtable
define void @_ZN3net10SpdyFramer10CharBuffer8CopyFromEPKcm(ptr noundef nonnull align 8 captures(none) dereferenceable(24) %0, ptr noundef readonly captures(none) %1, i64 noundef %2) local_unnamed_addr #13 align 2 personality ptr @__gxx_personality_v0 {
  %4 = load ptr, ptr %0, align 8, !tbaa !110
  %5 = getelementptr inbounds nuw i8, ptr %0, i64 16
  %6 = load i64, ptr %5, align 8, !tbaa !95
  %7 = getelementptr inbounds nuw i8, ptr %4, i64 %6
  tail call void @llvm.memcpy.p0.p0.i64(ptr align 1 %7, ptr align 1 %1, i64 %2, i1 false)
  %8 = load i64, ptr %5, align 8, !tbaa !95
  %9 = add i64 %8, %2
  store i64 %9, ptr %5, align 8, !tbaa !95
  ret void
}